target datalayout = "e-m:e-p270:32:32-p271:32:32-p272:64:64-i64:64-i128:128-f80:128-n8:16:32:64-S128"
target triple = "x86_64-pc-linux-gnu"

@.str = private unnamed_addr constant [5 x i8] c"pmix\00", align 1

; Function Attrs: nounwind uwtable
define internal i32 @release(ptr noundef %0) #0 {
  %2 = alloca i32, align 4
  %3 = alloca ptr, align 8
  store ptr %0, ptr %3, align 8, !tbaa !3
  %4 = load ptr, ptr %3, align 8, !tbaa !3
  %5 = icmp eq ptr null, %4
  br i1 %5, label %6, label %7

6:                                                ; preds = %1
  store i32 0, ptr %2, align 4
  br label %14

7:                                                ; preds = %1
  %8 = load ptr, ptr %3, align 8, !tbaa !3
  %9 = call i32 @strncmp(ptr noundef %8, ptr noundef @.str, i64 noundef 4) #13
  %10 = icmp ne i32 0, %9
  br i1 %10, label %11, label %12

11:                                               ; preds = %7
  store i32 -1366, ptr %2, align 4
  br label %14

12:                                               ; preds = %7
  %13 = load ptr, ptr %3, align 8, !tbaa !3
  call void @free(ptr noundef %13) #12
  store i32 0, ptr %2, align 4
  br label %14

14:                                               ; preds = %12, %11, %6
  %15 = load i32, ptr %2, align 4
  ret i32 %15
}