; Function Attrs: mustprogress nounwind willreturn memory(argmem: readwrite, inaccessiblemem: readwrite) uwtable
define internal range(i32 -1366, 1) i32 @release(ptr noundef captures(address_is_null) %0) #3 {
  %2 = icmp eq ptr %0, null
  br i1 %2, label %6, label %3

3:                                                ; preds = %1
  %4 = tail call i32 @strncmp(ptr noundef nonnull dereferenceable(1) %0, ptr noundef nonnull dereferenceable(5) @.str, i64 noundef 4) #19
  %.not = icmp eq i32 %4, 0
  br i1 %.not, label %5, label %6

5:                                                ; preds = %3
  tail call void @free(ptr noundef nonnull %0) #18
  br label %6

6:                                                ; preds = %3, %1, %5
  %.0 = phi i32 [ 0, %5 ], [ 0, %1 ], [ -1366, %3 ]
  ret i32 %.0
}